; Function Attrs: mustprogress nofree nounwind willreturn memory(read, inaccessiblemem: none) uwtable
define ptr @_ZNK3g2o28OptimizationAlgorithmFactory10findSolverERKNSt7__cxx1112basic_stringIcSt11char_traitsIcESaIcEEE(ptr noundef nonnull readonly align 8 captures(address, ret: address, provenance) dereferenceable(24) %0, ptr noundef nonnull readonly align 8 captures(none) dereferenceable(32) %1) local_unnamed_addr #8 align 2 personality ptr @__gxx_personality_v0 {
  %.sroa.03.011 = load ptr, ptr %0, align 8, !tbaa !19
  %.not12 = icmp eq ptr %.sroa.03.011, %0
  br i1 %.not12, label %_ZSteqIcEN9__gnu_cxx11__enable_ifIXsr9__is_charIT_EE7__valueEbE6__typeERKNSt7__cxx1112basic_stringIS2_St11char_traitsIS2_ESaIS2_EEESC_.exit.thread8, label %.lr.ph

.lr.ph:                                           ; preds = %2
  %3 = getelementptr inbounds nuw i8, ptr %1, i64 8
  %4 = load i64, ptr %3, align 8, !tbaa !14
  %5 = load ptr, ptr %1, align 8
  %6 = icmp eq i64 %4, 0
  br label %7

7:                                                ; preds = %.lr.ph, %_ZSteqIcEN9__gnu_cxx11__enable_ifIXsr9__is_charIT_EE7__valueEbE6__typeERKNSt7__cxx1112basic_stringIS2_St11char_traitsIS2_ESaIS2_EEESC_.exit.thread
  %.sroa.03.013 = phi ptr [ %.sroa.03.011, %.lr.ph ], [ %.sroa.03.0, %_ZSteqIcEN9__gnu_cxx11__enable_ifIXsr9__is_charIT_EE7__valueEbE6__typeERKNSt7__cxx1112basic_stringIS2_St11char_traitsIS2_ESaIS2_EEESC_.exit.thread ]
  %8 = getelementptr inbounds nuw i8, ptr %.sroa.03.013, i64 16
  %9 = load ptr, ptr %8, align 8, !tbaa !36
  %10 = getelementptr inbounds nuw i8, ptr %9, i64 8
  %11 = getelementptr inbounds nuw i8, ptr %9, i64 16
  %12 = load i64, ptr %11, align 8, !tbaa !14
  %13 = icmp eq i64 %12, %4
  br i1 %13, label %14, label %_ZSteqIcEN9__gnu_cxx11__enable_ifIXsr9__is_charIT_EE7__valueEbE6__typeERKNSt7__cxx1112basic_stringIS2_St11char_traitsIS2_ESaIS2_EEESC_.exit.thread

14:                                               ; preds = %7
  br i1 %6, label %_ZSteqIcEN9__gnu_cxx11__enable_ifIXsr9__is_charIT_EE7__valueEbE6__typeERKNSt7__cxx1112basic_stringIS2_St11char_traitsIS2_ESaIS2_EEESC_.exit.thread8, label %_ZSteqIcEN9__gnu_cxx11__enable_ifIXsr9__is_charIT_EE7__valueEbE6__typeERKNSt7__cxx1112basic_stringIS2_St11char_traitsIS2_ESaIS2_EEESC_.exit

_ZSteqIcEN9__gnu_cxx11__enable_ifIXsr9__is_charIT_EE7__valueEbE6__typeERKNSt7__cxx1112basic_stringIS2_St11char_traitsIS2_ESaIS2_EEESC_.exit: ; preds = %14
  %15 = load ptr, ptr %10, align 8, !tbaa !11
  %bcmp.i = tail call i32 @bcmp(ptr %15, ptr %5, i64 %4)
  %.not10 = icmp eq i32 %bcmp.i, 0
  br i1 %.not10, label %_ZSteqIcEN9__gnu_cxx11__enable_ifIXsr9__is_charIT_EE7__valueEbE6__typeERKNSt7__cxx1112basic_stringIS2_St11char_traitsIS2_ESaIS2_EEESC_.exit.thread8, label %_ZSteqIcEN9__gnu_cxx11__enable_ifIXsr9__is_charIT_EE7__valueEbE6__typeERKNSt7__cxx1112basic_stringIS2_St11char_traitsIS2_ESaIS2_EEESC_.exit.thread

_ZSteqIcEN9__gnu_cxx11__enable_ifIXsr9__is_charIT_EE7__valueEbE6__typeERKNSt7__cxx1112basic_stringIS2_St11char_traitsIS2_ESaIS2_EEESC_.exit.thread: ; preds = %7, %_ZSteqIcEN9__gnu_cxx11__enable_ifIXsr9__is_charIT_EE7__valueEbE6__typeERKNSt7__cxx1112basic_stringIS2_St11char_traitsIS2_ESaIS2_EEESC_.exit
  %.sroa.03.0 = load ptr, ptr %.sroa.03.013, align 8, !tbaa !19
  %.not = icmp eq ptr %.sroa.03.0, %0
  br i1 %.not, label %_ZSteqIcEN9__gnu_cxx11__enable_ifIXsr9__is_charIT_EE7__valueEbE6__typeERKNSt7__cxx1112basic_stringIS2_St11char_traitsIS2_ESaIS2_EEESC_.exit.thread8, label %7, !llvm.loop !43

_ZSteqIcEN9__gnu_cxx11__enable_ifIXsr9__is_charIT_EE7__valueEbE6__typeERKNSt7__cxx1112basic_stringIS2_St11char_traitsIS2_ESaIS2_EEESC_.exit.thread8: ; preds = %_ZSteqIcEN9__gnu_cxx11__enable_ifIXsr9__is_charIT_EE7__valueEbE6__typeERKNSt7__cxx1112basic_stringIS2_St11char_traitsIS2_ESaIS2_EEESC_.exit, %_ZSteqIcEN9__gnu_cxx11__enable_ifIXsr9__is_charIT_EE7__valueEbE6__typeERKNSt7__cxx1112basic_stringIS2_St11char_traitsIS2_ESaIS2_EEESC_.exit.thread, %14, %2
  %.sroa.03.1 = phi ptr [ %0, %2 ], [ %.sroa.03.013, %14 ], [ %0, %_ZSteqIcEN9__gnu_cxx11__enable_ifIXsr9__is_charIT_EE7__valueEbE6__typeERKNSt7__cxx1112basic_stringIS2_St11char_traitsIS2_ESaIS2_EEESC_.exit.thread ], [ %.sroa.03.013, %_ZSteqIcEN9__gnu_cxx11__enable_ifIXsr9__is_charIT_EE7__valueEbE6__typeERKNSt7__cxx1112basic_stringIS2_St11char_traitsIS2_ESaIS2_EEESC_.exit ]
  ret ptr %.sroa.03.1
}